target datalayout = "e-m:e-p270:32:32-p271:32:32-p272:64:64-i64:64-i128:128-f80:128-n8:16:32:64-S128"
target triple = "x86_64-pc-linux-gnu"

%struct._zval_struct = type { %union._zend_value, %union.anon, %union.anon.2 }
%union._zend_value = type { i64 }
%union.anon = type { i32 }
%union.anon.2 = type { i32 }
%struct._zend_refcounted_h = type { i32, %union.anon.3 }
%union.anon.3 = type { i32 }
%struct._php_hashcontext_object = type { ptr, ptr, i64, ptr, %struct._zend_object }
%struct._zend_object = type { %struct._zend_refcounted_h, i32, i32, ptr, ptr, ptr, [1 x %struct._zval_struct] }
%struct.PHP_XXH64_CTX = type { %struct.XXH_NAMESPACEXXH64_state_s }
%struct.XXH_NAMESPACEXXH64_state_s = type { i64, [4 x i64], [4 x i64], i32, i32, i64 }

@.str.5 = private unnamed_addr constant [13 x i8] c"qqqqqqqqqllq\00", align 1

; Function Attrs: nounwind uwtable
define internal i32 @php_hash_xxh64_unserialize(ptr noundef %0, i64 noundef %1, ptr noundef %2) #0 {
  %4 = alloca i32, align 4
  %5 = alloca ptr, align 8
  %6 = alloca i64, align 8
  %7 = alloca ptr, align 8
  %8 = alloca ptr, align 8
  %9 = alloca i32, align 4
  %10 = alloca i32, align 4
  store ptr %0, ptr %5, align 8, !tbaa !22
  store i64 %1, ptr %6, align 8, !tbaa !15
  store ptr %2, ptr %7, align 8, !tbaa !10
  call void @llvm.lifetime.start.p0(i64 8, ptr %8) #14
  %11 = load ptr, ptr %5, align 8, !tbaa !22
  %12 = getelementptr inbounds nuw %struct._php_hashcontext_object, ptr %11, i32 0, i32 1
  %13 = load ptr, ptr %12, align 8, !tbaa !24
  store ptr %13, ptr %8, align 8, !tbaa !4
  call void @llvm.lifetime.start.p0(i64 4, ptr %9) #14
  store i32 -1, ptr %9, align 4, !tbaa !20
  %14 = load i64, ptr %6, align 8, !tbaa !15
  %15 = icmp eq i64 %14, 2
  br i1 %15, label %16, label %28

16:                                               ; preds = %3
  %17 = load ptr, ptr %5, align 8, !tbaa !22
  %18 = load ptr, ptr %7, align 8, !tbaa !10
  %19 = call i32 @php_hash_unserialize_spec(ptr noundef %17, ptr noundef %18, ptr noundef @.str.5)
  store i32 %19, ptr %9, align 4, !tbaa !20
  %20 = icmp eq i32 %19, 0
  br i1 %20, label %21, label %28

21:                                               ; preds = %16
  %22 = load ptr, ptr %8, align 8, !tbaa !4
  %23 = getelementptr inbounds nuw %struct.PHP_XXH64_CTX, ptr %22, i32 0, i32 0
  %24 = getelementptr inbounds nuw %struct.XXH_NAMESPACEXXH64_state_s, ptr %23, i32 0, i32 3
  %25 = load i32, ptr %24, align 8, !tbaa !41
  %26 = icmp ult i32 %25, 32
  br i1 %26, label %27, label %28

27:                                               ; preds = %21
  store i32 0, ptr %4, align 4
  store i32 1, ptr %10, align 4
  br label %36

28:                                               ; preds = %21, %16, %3
  %29 = load i32, ptr %9, align 4, !tbaa !20
  %30 = icmp ne i32 %29, 0
  br i1 %30, label %31, label %33

31:                                               ; preds = %28
  %32 = load i32, ptr %9, align 4, !tbaa !20
  br label %34

33:                                               ; preds = %28
  br label %34

34:                                               ; preds = %33, %31
  %35 = phi i32 [ %32, %31 ], [ -2000, %33 ]
  store i32 %35, ptr %4, align 4
  store i32 1, ptr %10, align 4
  br label %36

36:                                               ; preds = %34, %27
  call void @llvm.lifetime.end.p0(i64 4, ptr %9) #14
  call void @llvm.lifetime.end.p0(i64 8, ptr %8) #14
  %37 = load i32, ptr %4, align 4
  ret i32 %37
}